; Function Attrs: null_pointer_is_valid sspstrong uwtable
define internal i32 @dissect_ber_INTEGER(i1 noundef zeroext %0, ptr noundef %1, i32 noundef %2, ptr noundef captures(none) %3, ptr noundef %4, i32 noundef %5) #0 {
  %7 = alloca i64, align 8
  %8 = getelementptr inbounds nuw i8, ptr %3, i64 80
  call void @llvm.lifetime.start.p0(i64 8, ptr nonnull %7) #14
  %9 = call i32 @dissect_ber_integer64(i1 noundef zeroext %0, ptr noundef %3, ptr noundef %4, ptr noundef %1, i32 noundef %2, i32 noundef %5, ptr noundef nonnull %7)
  %10 = load i64, ptr %7, align 8
  %11 = trunc i64 %10 to i32
  store i32 %11, ptr %8, align 4
  call void @llvm.lifetime.end.p0(i64 8, ptr nonnull %7) #14
  %12 = getelementptr inbounds nuw i8, ptr %3, i64 62
  store i8 1, ptr %12, align 2
  ret i32 %9
}